target datalayout = "e-m:e-p270:32:32-p271:32:32-p272:64:64-i64:64-i128:128-f80:128-n8:16:32:64-S128"
target triple = "x86_64-pc-linux-gnu"

%struct.SDL_AudioDriver = type { ptr, ptr, %struct.SDL_AudioDriverImpl, ptr, ptr, ptr, i32, i32, %struct.SDL_PendingAudioDeviceEvent, ptr, %struct.SDL_AtomicInt, %struct.SDL_AtomicInt, %struct.SDL_AtomicInt }
%struct.SDL_AudioDriverImpl = type { ptr, ptr, ptr, ptr, ptr, ptr, ptr, ptr, ptr, ptr, ptr, ptr, ptr, ptr, i8, i8, i8, i8 }
%struct.SDL_PendingAudioDeviceEvent = type { i32, i32, ptr }
%struct.SDL_AtomicInt = type { i32 }
%struct.SDL_AudioSpec = type { i32, i32, i32 }
%struct.SDL_AudioDevice = type { ptr, ptr, %struct.SDL_AtomicInt, ptr, ptr, ptr, ptr, ptr, ptr, ptr, i32, ptr, %struct.SDL_AudioSpec, i32, ptr, %struct.SDL_AudioSpec, i32, i32, %struct.SDL_AtomicInt, %struct.SDL_AtomicInt, i8, i8, ptr, ptr, ptr, i32, ptr, i8, ptr, ptr }
%struct.SDL_LogicalAudioDevice = type { i32, ptr, %struct.SDL_AtomicInt, float, ptr, i8, i8, ptr, ptr, ptr, ptr, ptr, ptr, ptr }

@current_audio = internal global %struct.SDL_AudioDriver zeroinitializer, align 8

; Function Attrs: nounwind uwtable
define hidden void @RefPhysicalAudioDevice(ptr noundef %0) #0 {
  %2 = alloca ptr, align 8
  store ptr %0, ptr %2, align 8
  %3 = load ptr, ptr %2, align 8
  %4 = getelementptr inbounds nuw %struct.SDL_AudioDevice, ptr %3, i32 0, i32 2
  %5 = call i32 @SDL_AddAtomicInt_REAL(ptr noundef %4, i32 noundef 1)
  ret void
}

; Function Attrs: nounwind uwtable
define hidden void @UnrefPhysicalAudioDevice(ptr noundef %0) #0 {
  %2 = alloca ptr, align 8
  store ptr %0, ptr %2, align 8
  %3 = load ptr, ptr %2, align 8
  %4 = getelementptr inbounds nuw %struct.SDL_AudioDevice, ptr %3, i32 0, i32 2
  %5 = call i32 @SDL_AddAtomicInt_REAL(ptr noundef %4, i32 noundef -1)
  %6 = icmp eq i32 %5, 1
  br i1 %6, label %7, label %26

7:                                                ; preds = %1
  %8 = load ptr, ptr getelementptr inbounds nuw (%struct.SDL_AudioDriver, ptr @current_audio, i32 0, i32 3), align 8
  call void @SDL_LockRWLockForWriting_REAL(ptr noundef %8)
  %9 = load ptr, ptr getelementptr inbounds nuw (%struct.SDL_AudioDriver, ptr @current_audio, i32 0, i32 4), align 8
  %10 = load ptr, ptr %2, align 8
  %11 = getelementptr inbounds nuw %struct.SDL_AudioDevice, ptr %10, i32 0, i32 10
  %12 = load i32, ptr %11, align 8
  %13 = zext i32 %12 to i64
  %14 = inttoptr i64 %13 to ptr
  %15 = call zeroext i1 @SDL_RemoveFromHashTable(ptr noundef %9, ptr noundef %14)
  br i1 %15, label %16, label %23

16:                                               ; preds = %7
  %17 = load ptr, ptr %2, align 8
  %18 = getelementptr inbounds nuw %struct.SDL_AudioDevice, ptr %17, i32 0, i32 20
  %19 = load i8, ptr %18, align 4, !range !5, !noundef !6
  %20 = trunc i8 %19 to i1
  %21 = select i1 %20, ptr getelementptr inbounds nuw (%struct.SDL_AudioDriver, ptr @current_audio, i32 0, i32 11), ptr getelementptr inbounds nuw (%struct.SDL_AudioDriver, ptr @current_audio, i32 0, i32 10)
  %22 = call i32 @SDL_AddAtomicInt_REAL(ptr noundef %21, i32 noundef -1)
  br label %23

23:                                               ; preds = %16, %7
  %24 = load ptr, ptr getelementptr inbounds nuw (%struct.SDL_AudioDriver, ptr @current_audio, i32 0, i32 3), align 8
  call void @SDL_UnlockRWLock_REAL(ptr noundef %24)
  %25 = load ptr, ptr %2, align 8
  call void @DestroyPhysicalAudioDevice(ptr noundef %25)
  br label %26

26:                                               ; preds = %23, %1
  ret void
}

; Function Attrs: nounwind uwtable
define internal void @ObtainPhysicalAudioDeviceObj(ptr noundef %0) #0 {
  %2 = alloca ptr, align 8
  store ptr %0, ptr %2, align 8
  %3 = load ptr, ptr %2, align 8
  %4 = icmp ne ptr %3, null
  br i1 %4, label %5, label %10

5:                                                ; preds = %1
  %6 = load ptr, ptr %2, align 8
  call void @RefPhysicalAudioDevice(ptr noundef %6)
  %7 = load ptr, ptr %2, align 8
  %8 = getelementptr inbounds nuw %struct.SDL_AudioDevice, ptr %7, i32 0, i32 0
  %9 = load ptr, ptr %8, align 8
  call void @SDL_LockMutex_REAL(ptr noundef %9)
  br label %10

10:                                               ; preds = %5, %1
  ret void
}

; Function Attrs: nounwind uwtable
define hidden void @SDL_AudioDeviceDisconnected(ptr noundef %0) #0 {
  %2 = alloca ptr, align 8
  %3 = alloca %struct.SDL_PendingAudioDeviceEvent, align 8
  %4 = alloca ptr, align 8
  %5 = alloca i32, align 4
  %6 = alloca i8, align 1
  %7 = alloca i8, align 1
  %8 = alloca ptr, align 8
  %9 = alloca ptr, align 8
  %10 = alloca ptr, align 8
  store ptr %0, ptr %2, align 8
  %11 = load ptr, ptr %2, align 8
  %12 = icmp ne ptr %11, null
  br i1 %12, label %14, label %13

13:                                               ; preds = %1
  br label %134

14:                                               ; preds = %1
  call void @llvm.lifetime.start.p0(i64 16, ptr %3) #6
  %15 = getelementptr inbounds nuw %struct.SDL_PendingAudioDeviceEvent, ptr %3, i32 0, i32 2
  store ptr null, ptr %15, align 8
  call void @llvm.lifetime.start.p0(i64 8, ptr %4) #6
  store ptr %3, ptr %4, align 8
  %16 = load ptr, ptr %2, align 8
  call void @ObtainPhysicalAudioDeviceObj(ptr noundef %16)
  %17 = load ptr, ptr getelementptr inbounds nuw (%struct.SDL_AudioDriver, ptr @current_audio, i32 0, i32 3), align 8
  call void @SDL_LockRWLockForReading_REAL(ptr noundef %17)
  call void @llvm.lifetime.start.p0(i64 4, ptr %5) #6
  %18 = load ptr, ptr %2, align 8
  %19 = getelementptr inbounds nuw %struct.SDL_AudioDevice, ptr %18, i32 0, i32 10
  %20 = load i32, ptr %19, align 8
  store i32 %20, ptr %5, align 4
  call void @llvm.lifetime.start.p0(i64 1, ptr %6) #6
  %21 = load i32, ptr %5, align 4
  %22 = load i32, ptr getelementptr inbounds nuw (%struct.SDL_AudioDriver, ptr @current_audio, i32 0, i32 6), align 8
  %23 = icmp eq i32 %21, %22
  br i1 %23, label %28, label %24

24:                                               ; preds = %14
  %25 = load i32, ptr %5, align 4
  %26 = load i32, ptr getelementptr inbounds nuw (%struct.SDL_AudioDriver, ptr @current_audio, i32 0, i32 7), align 4
  %27 = icmp eq i32 %25, %26
  br label %28

28:                                               ; preds = %24, %14
  %29 = phi i1 [ true, %14 ], [ %27, %24 ]
  %30 = zext i1 %29 to i8
  store i8 %30, ptr %6, align 1
  %31 = load ptr, ptr getelementptr inbounds nuw (%struct.SDL_AudioDriver, ptr @current_audio, i32 0, i32 3), align 8
  call void @SDL_UnlockRWLock_REAL(ptr noundef %31)
  call void @llvm.lifetime.start.p0(i64 1, ptr %7) #6
  %32 = load ptr, ptr %2, align 8
  %33 = getelementptr inbounds nuw %struct.SDL_AudioDevice, ptr %32, i32 0, i32 19
  %34 = call zeroext i1 @SDL_CompareAndSwapAtomicInt_REAL(ptr noundef %33, i32 noundef 0, i32 noundef 1)
  %35 = zext i1 %34 to i8
  store i8 %35, ptr %7, align 1
  %36 = load i8, ptr %7, align 1, !range !5, !noundef !6
  %37 = trunc i8 %36 to i1
  br i1 %37, label %38, label %109

38:                                               ; preds = %28
  %39 = load ptr, ptr %2, align 8
  %40 = getelementptr inbounds nuw %struct.SDL_AudioDevice, ptr %39, i32 0, i32 3
  store ptr @ZombieWaitDevice, ptr %40, align 8
  %41 = load ptr, ptr %2, align 8
  %42 = getelementptr inbounds nuw %struct.SDL_AudioDevice, ptr %41, i32 0, i32 5
  store ptr @ZombieGetDeviceBuf, ptr %42, align 8
  %43 = load ptr, ptr %2, align 8
  %44 = getelementptr inbounds nuw %struct.SDL_AudioDevice, ptr %43, i32 0, i32 4
  store ptr @ZombiePlayDevice, ptr %44, align 8
  %45 = load ptr, ptr %2, align 8
  %46 = getelementptr inbounds nuw %struct.SDL_AudioDevice, ptr %45, i32 0, i32 6
  store ptr @ZombieWaitDevice, ptr %46, align 8
  %47 = load ptr, ptr %2, align 8
  %48 = getelementptr inbounds nuw %struct.SDL_AudioDevice, ptr %47, i32 0, i32 7
  store ptr @ZombieRecordDevice, ptr %48, align 8
  %49 = load ptr, ptr %2, align 8
  %50 = getelementptr inbounds nuw %struct.SDL_AudioDevice, ptr %49, i32 0, i32 8
  store ptr @ZombieFlushRecording, ptr %50, align 8
  call void @llvm.lifetime.start.p0(i64 8, ptr %8) #6
  %51 = load ptr, ptr %2, align 8
  %52 = getelementptr inbounds nuw %struct.SDL_AudioDevice, ptr %51, i32 0, i32 29
  %53 = load ptr, ptr %52, align 8
  store ptr %53, ptr %8, align 8
  br label %54

54:                                               ; preds = %86, %38
  %55 = load ptr, ptr %8, align 8
  %56 = icmp ne ptr %55, null
  br i1 %56, label %58, label %57

57:                                               ; preds = %54
  call void @llvm.lifetime.end.p0(i64 8, ptr %8) #6
  br label %90

58:                                               ; preds = %54
  %59 = load i8, ptr %6, align 1, !range !5, !noundef !6
  %60 = trunc i8 %59 to i1
  br i1 %60, label %61, label %66

61:                                               ; preds = %58
  %62 = load ptr, ptr %8, align 8
  %63 = getelementptr inbounds nuw %struct.SDL_LogicalAudioDevice, ptr %62, i32 0, i32 5
  %64 = load i8, ptr %63, align 8, !range !5, !noundef !6
  %65 = trunc i8 %64 to i1
  br i1 %65, label %85, label %66

66:                                               ; preds = %61, %58
  call void @llvm.lifetime.start.p0(i64 8, ptr %9) #6
  %67 = call noalias ptr @SDL_malloc_REAL(i64 noundef 16)
  store ptr %67, ptr %9, align 8
  %68 = load ptr, ptr %9, align 8
  %69 = icmp ne ptr %68, null
  br i1 %69, label %70, label %84

70:                                               ; preds = %66
  %71 = load ptr, ptr %9, align 8
  %72 = getelementptr inbounds nuw %struct.SDL_PendingAudioDeviceEvent, ptr %71, i32 0, i32 0
  store i32 4353, ptr %72, align 8
  %73 = load ptr, ptr %8, align 8
  %74 = getelementptr inbounds nuw %struct.SDL_LogicalAudioDevice, ptr %73, i32 0, i32 0
  %75 = load i32, ptr %74, align 8
  %76 = load ptr, ptr %9, align 8
  %77 = getelementptr inbounds nuw %struct.SDL_PendingAudioDeviceEvent, ptr %76, i32 0, i32 1
  store i32 %75, ptr %77, align 4
  %78 = load ptr, ptr %9, align 8
  %79 = getelementptr inbounds nuw %struct.SDL_PendingAudioDeviceEvent, ptr %78, i32 0, i32 2
  store ptr null, ptr %79, align 8
  %80 = load ptr, ptr %9, align 8
  %81 = load ptr, ptr %4, align 8
  %82 = getelementptr inbounds nuw %struct.SDL_PendingAudioDeviceEvent, ptr %81, i32 0, i32 2
  store ptr %80, ptr %82, align 8
  %83 = load ptr, ptr %9, align 8
  store ptr %83, ptr %4, align 8
  br label %84

84:                                               ; preds = %70, %66
  call void @llvm.lifetime.end.p0(i64 8, ptr %9) #6
  br label %85

85:                                               ; preds = %84, %61
  br label %86

86:                                               ; preds = %85
  %87 = load ptr, ptr %8, align 8
  %88 = getelementptr inbounds nuw %struct.SDL_LogicalAudioDevice, ptr %87, i32 0, i32 12
  %89 = load ptr, ptr %88, align 8
  store ptr %89, ptr %8, align 8
  br label %54, !llvm.loop !9

90:                                               ; preds = %57
  call void @llvm.lifetime.start.p0(i64 8, ptr %10) #6
  %91 = call noalias ptr @SDL_malloc_REAL(i64 noundef 16)
  store ptr %91, ptr %10, align 8
  %92 = load ptr, ptr %10, align 8
  %93 = icmp ne ptr %92, null
  br i1 %93, label %94, label %108

94:                                               ; preds = %90
  %95 = load ptr, ptr %10, align 8
  %96 = getelementptr inbounds nuw %struct.SDL_PendingAudioDeviceEvent, ptr %95, i32 0, i32 0
  store i32 4353, ptr %96, align 8
  %97 = load ptr, ptr %2, align 8
  %98 = getelementptr inbounds nuw %struct.SDL_AudioDevice, ptr %97, i32 0, i32 10
  %99 = load i32, ptr %98, align 8
  %100 = load ptr, ptr %10, align 8
  %101 = getelementptr inbounds nuw %struct.SDL_PendingAudioDeviceEvent, ptr %100, i32 0, i32 1
  store i32 %99, ptr %101, align 4
  %102 = load ptr, ptr %10, align 8
  %103 = getelementptr inbounds nuw %struct.SDL_PendingAudioDeviceEvent, ptr %102, i32 0, i32 2
  store ptr null, ptr %103, align 8
  %104 = load ptr, ptr %10, align 8
  %105 = load ptr, ptr %4, align 8
  %106 = getelementptr inbounds nuw %struct.SDL_PendingAudioDeviceEvent, ptr %105, i32 0, i32 2
  store ptr %104, ptr %106, align 8
  %107 = load ptr, ptr %10, align 8
  store ptr %107, ptr %4, align 8
  br label %108

108:                                              ; preds = %94, %90
  call void @llvm.lifetime.end.p0(i64 8, ptr %10) #6
  br label %109

109:                                              ; preds = %108, %28
  %110 = load ptr, ptr %2, align 8
  call void @ReleaseAudioDevice(ptr noundef %110)
  %111 = load i8, ptr %7, align 1, !range !5, !noundef !6
  %112 = trunc i8 %111 to i1
  br i1 %112, label %113, label %133

113:                                              ; preds = %109
  %114 = getelementptr inbounds nuw %struct.SDL_PendingAudioDeviceEvent, ptr %3, i32 0, i32 2
  %115 = load ptr, ptr %114, align 8
  %116 = icmp ne ptr %115, null
  br i1 %116, label %117, label %131

117:                                              ; preds = %113
  %118 = load ptr, ptr getelementptr inbounds nuw (%struct.SDL_AudioDriver, ptr @current_audio, i32 0, i32 3), align 8
  call void @SDL_LockRWLockForWriting_REAL(ptr noundef %118)
  br label %119

119:                                              ; preds = %117
  br label %120

120:                                              ; preds = %119
  br label %121

121:                                              ; preds = %120
  br label %122

122:                                              ; preds = %121
  br label %123

123:                                              ; preds = %122
  br label %124

124:                                              ; preds = %123
  %125 = getelementptr inbounds nuw %struct.SDL_PendingAudioDeviceEvent, ptr %3, i32 0, i32 2
  %126 = load ptr, ptr %125, align 8
  %127 = load ptr, ptr getelementptr inbounds nuw (%struct.SDL_AudioDriver, ptr @current_audio, i32 0, i32 9), align 8
  %128 = getelementptr inbounds nuw %struct.SDL_PendingAudioDeviceEvent, ptr %127, i32 0, i32 2
  store ptr %126, ptr %128, align 8
  %129 = load ptr, ptr %4, align 8
  store ptr %129, ptr getelementptr inbounds nuw (%struct.SDL_AudioDriver, ptr @current_audio, i32 0, i32 9), align 8
  %130 = load ptr, ptr getelementptr inbounds nuw (%struct.SDL_AudioDriver, ptr @current_audio, i32 0, i32 3), align 8
  call void @SDL_UnlockRWLock_REAL(ptr noundef %130)
  br label %131

131:                                              ; preds = %124, %113
  %132 = load ptr, ptr %2, align 8
  call void @UnrefPhysicalAudioDevice(ptr noundef %132)
  br label %133

133:                                              ; preds = %131, %109
  call void @llvm.lifetime.end.p0(i64 1, ptr %7) #6
  call void @llvm.lifetime.end.p0(i64 1, ptr %6) #6
  call void @llvm.lifetime.end.p0(i64 4, ptr %5) #6
  call void @llvm.lifetime.end.p0(i64 8, ptr %4) #6
  call void @llvm.lifetime.end.p0(i64 16, ptr %3) #6
  br label %134

134:                                              ; preds = %133, %13
  ret void
}