; Function Attrs: nounwind uwtable
define hidden void @SDL_AudioDeviceDisconnected(ptr noundef %0) local_unnamed_addr #0 {
  %2 = alloca %struct.SDL_PendingAudioDeviceEvent, align 8
  %.not = icmp eq ptr %0, null
  br i1 %.not, label %77, label %ObtainPhysicalAudioDeviceObj.exit

ObtainPhysicalAudioDeviceObj.exit:                ; preds = %1
  call void @llvm.lifetime.start.p0(i64 16, ptr nonnull %2) #14
  %3 = getelementptr inbounds nuw i8, ptr %2, i64 8
  store ptr null, ptr %3, align 8
  %4 = getelementptr inbounds nuw i8, ptr %0, i64 16
  %5 = tail call i32 @SDL_AddAtomicInt_REAL(ptr noundef nonnull %4, i32 noundef 1) #14
  %6 = load ptr, ptr %0, align 8
  tail call void @SDL_LockMutex_REAL(ptr noundef %6) #14
  %7 = load ptr, ptr getelementptr inbounds nuw (i8, ptr @current_audio, i64 136), align 8
  tail call void @SDL_LockRWLockForReading_REAL(ptr noundef %7) #14
  %8 = getelementptr inbounds nuw i8, ptr %0, i64 80
  %9 = load i32, ptr %8, align 8
  %10 = load i32, ptr getelementptr inbounds nuw (i8, ptr @current_audio, i64 160), align 8
  %11 = icmp eq i32 %9, %10
  %12 = load i32, ptr getelementptr inbounds nuw (i8, ptr @current_audio, i64 164), align 4
  %13 = icmp eq i32 %9, %12
  %14 = select i1 %11, i1 true, i1 %13
  %15 = load ptr, ptr getelementptr inbounds nuw (i8, ptr @current_audio, i64 136), align 8
  tail call void @SDL_UnlockRWLock_REAL(ptr noundef %15) #14
  %16 = getelementptr inbounds nuw i8, ptr %0, i64 144
  %17 = tail call zeroext i1 @SDL_CompareAndSwapAtomicInt_REAL(ptr noundef nonnull %16, i32 noundef 0, i32 noundef 1) #14
  br i1 %17, label %18, label %.thread

.thread:                                          ; preds = %ObtainPhysicalAudioDeviceObj.exit
  tail call fastcc void @ReleaseAudioDevice(ptr noundef nonnull %0)
  br label %UnrefPhysicalAudioDevice.exit

18:                                               ; preds = %ObtainPhysicalAudioDeviceObj.exit
  %19 = getelementptr inbounds nuw i8, ptr %0, i64 24
  store ptr @ZombieWaitDevice, ptr %19, align 8
  %20 = getelementptr inbounds nuw i8, ptr %0, i64 40
  store ptr @ZombieGetDeviceBuf, ptr %20, align 8
  %21 = getelementptr inbounds nuw i8, ptr %0, i64 32
  store ptr @ZombiePlayDevice, ptr %21, align 8
  %22 = getelementptr inbounds nuw i8, ptr %0, i64 48
  store ptr @ZombieWaitDevice, ptr %22, align 8
  %23 = getelementptr inbounds nuw i8, ptr %0, i64 56
  store ptr @ZombieRecordDevice, ptr %23, align 8
  %24 = getelementptr inbounds nuw i8, ptr %0, i64 64
  store ptr @ZombieFlushRecording, ptr %24, align 8
  %25 = getelementptr inbounds nuw i8, ptr %0, i64 208
  %.03746 = load ptr, ptr %25, align 8
  %.not4147 = icmp eq ptr %.03746, null
  br i1 %.not4147, label %._crit_edge, label %.lr.ph

.lr.ph:                                           ; preds = %18
  br i1 %14, label %.lr.ph.split.us, label %.lr.ph.split

.lr.ph.split.us:                                  ; preds = %.lr.ph, %36
  %.03749.us = phi ptr [ %.037.us, %36 ], [ %.03746, %.lr.ph ]
  %.148.us = phi ptr [ %.3.us, %36 ], [ %2, %.lr.ph ]
  %26 = getelementptr inbounds nuw i8, ptr %.03749.us, i64 32
  %27 = load i8, ptr %26, align 8, !range !6, !noundef !7
  %28 = trunc nuw i8 %27 to i1
  br i1 %28, label %36, label %29

29:                                               ; preds = %.lr.ph.split.us
  %30 = tail call noalias ptr @SDL_malloc_REAL(i64 noundef 16) #14
  %.not44.us = icmp eq ptr %30, null
  br i1 %.not44.us, label %36, label %31

31:                                               ; preds = %29
  store i32 4353, ptr %30, align 8
  %32 = load i32, ptr %.03749.us, align 8
  %33 = getelementptr inbounds nuw i8, ptr %30, i64 4
  store i32 %32, ptr %33, align 4
  %34 = getelementptr inbounds nuw i8, ptr %30, i64 8
  store ptr null, ptr %34, align 8
  %35 = getelementptr inbounds nuw i8, ptr %.148.us, i64 8
  store ptr %30, ptr %35, align 8
  br label %36

36:                                               ; preds = %31, %29, %.lr.ph.split.us
  %.3.us = phi ptr [ %.148.us, %.lr.ph.split.us ], [ %30, %31 ], [ %.148.us, %29 ]
  %37 = getelementptr inbounds nuw i8, ptr %.03749.us, i64 80
  %.037.us = load ptr, ptr %37, align 8
  %.not41.us = icmp eq ptr %.037.us, null
  br i1 %.not41.us, label %._crit_edge, label %.lr.ph.split.us, !llvm.loop !9

._crit_edge:                                      ; preds = %45, %36, %18
  %.1.lcssa = phi ptr [ %2, %18 ], [ %.3.us, %36 ], [ %.3, %45 ]
  %38 = tail call noalias ptr @SDL_malloc_REAL(i64 noundef 16) #14
  %.not42 = icmp eq ptr %38, null
  br i1 %.not42, label %52, label %47

.lr.ph.split:                                     ; preds = %.lr.ph, %45
  %.03749 = phi ptr [ %.037, %45 ], [ %.03746, %.lr.ph ]
  %.148 = phi ptr [ %.3, %45 ], [ %2, %.lr.ph ]
  %39 = tail call noalias ptr @SDL_malloc_REAL(i64 noundef 16) #14
  %.not44 = icmp eq ptr %39, null
  br i1 %.not44, label %45, label %40

40:                                               ; preds = %.lr.ph.split
  store i32 4353, ptr %39, align 8
  %41 = load i32, ptr %.03749, align 8
  %42 = getelementptr inbounds nuw i8, ptr %39, i64 4
  store i32 %41, ptr %42, align 4
  %43 = getelementptr inbounds nuw i8, ptr %39, i64 8
  store ptr null, ptr %43, align 8
  %44 = getelementptr inbounds nuw i8, ptr %.148, i64 8
  store ptr %39, ptr %44, align 8
  br label %45

45:                                               ; preds = %.lr.ph.split, %40
  %.3 = phi ptr [ %39, %40 ], [ %.148, %.lr.ph.split ]
  %46 = getelementptr inbounds nuw i8, ptr %.03749, i64 80
  %.037 = load ptr, ptr %46, align 8
  %.not41 = icmp eq ptr %.037, null
  br i1 %.not41, label %._crit_edge, label %.lr.ph.split, !llvm.loop !9

47:                                               ; preds = %._crit_edge
  store i32 4353, ptr %38, align 8
  %48 = load i32, ptr %8, align 8
  %49 = getelementptr inbounds nuw i8, ptr %38, i64 4
  store i32 %48, ptr %49, align 4
  %50 = getelementptr inbounds nuw i8, ptr %38, i64 8
  store ptr null, ptr %50, align 8
  %51 = getelementptr inbounds nuw i8, ptr %.1.lcssa, i64 8
  store ptr %38, ptr %51, align 8
  br label %52

52:                                               ; preds = %._crit_edge, %47
  %.0 = phi ptr [ %38, %47 ], [ %.1.lcssa, %._crit_edge ]
  tail call fastcc void @ReleaseAudioDevice(ptr noundef nonnull %0)
  %53 = load ptr, ptr %3, align 8
  %.not43 = icmp eq ptr %53, null
  br i1 %.not43, label %59, label %54

54:                                               ; preds = %52
  %55 = load ptr, ptr getelementptr inbounds nuw (i8, ptr @current_audio, i64 136), align 8
  tail call void @SDL_LockRWLockForWriting_REAL(ptr noundef %55) #14
  %56 = load ptr, ptr getelementptr inbounds nuw (i8, ptr @current_audio, i64 184), align 8
  %57 = getelementptr inbounds nuw i8, ptr %56, i64 8
  store ptr %53, ptr %57, align 8
  store ptr %.0, ptr getelementptr inbounds nuw (i8, ptr @current_audio, i64 184), align 8
  %58 = load ptr, ptr getelementptr inbounds nuw (i8, ptr @current_audio, i64 136), align 8
  call void @SDL_UnlockRWLock_REAL(ptr noundef %58) #14
  br label %59

59:                                               ; preds = %54, %52
  %60 = call i32 @SDL_AddAtomicInt_REAL(ptr noundef nonnull %4, i32 noundef -1) #14
  %61 = icmp eq i32 %60, 1
  br i1 %61, label %62, label %UnrefPhysicalAudioDevice.exit

62:                                               ; preds = %59
  %63 = load ptr, ptr getelementptr inbounds nuw (i8, ptr @current_audio, i64 136), align 8
  call void @SDL_LockRWLockForWriting_REAL(ptr noundef %63) #14
  %64 = load ptr, ptr getelementptr inbounds nuw (i8, ptr @current_audio, i64 144), align 8
  %65 = load i32, ptr %8, align 8
  %66 = zext i32 %65 to i64
  %67 = inttoptr i64 %66 to ptr
  %68 = call zeroext i1 @SDL_RemoveFromHashTable(ptr noundef %64, ptr noundef %67) #14
  br i1 %68, label %69, label %75

69:                                               ; preds = %62
  %70 = getelementptr inbounds nuw i8, ptr %0, i64 148
  %71 = load i8, ptr %70, align 4, !range !6, !noundef !7
  %72 = trunc nuw i8 %71 to i1
  %73 = select i1 %72, ptr getelementptr inbounds nuw (i8, ptr @current_audio, i64 196), ptr getelementptr inbounds nuw (i8, ptr @current_audio, i64 192)
  %74 = call i32 @SDL_AddAtomicInt_REAL(ptr noundef nonnull %73, i32 noundef -1) #14
  br label %75

75:                                               ; preds = %69, %62
  %76 = load ptr, ptr getelementptr inbounds nuw (i8, ptr @current_audio, i64 136), align 8
  call void @SDL_UnlockRWLock_REAL(ptr noundef %76) #14
  call fastcc void @DestroyPhysicalAudioDevice(ptr noundef nonnull %0)
  br label %UnrefPhysicalAudioDevice.exit

UnrefPhysicalAudioDevice.exit:                    ; preds = %75, %59, %.thread
  call void @llvm.lifetime.end.p0(i64 16, ptr nonnull %2) #14
  br label %77

77:                                               ; preds = %1, %UnrefPhysicalAudioDevice.exit
  ret void
}